target datalayout = "e-m:e-p270:32:32-p271:32:32-p272:64:64-i64:64-i128:128-f80:128-n8:16:32:64-S128"
target triple = "x86_64-pc-linux-gnu"

%"class.std::__cxx11::basic_string" = type { %"struct.std::__cxx11::basic_string<char>::_Alloc_hider", i64, %union.anon }
%"struct.std::__cxx11::basic_string<char>::_Alloc_hider" = type { ptr }
%union.anon = type { i64, [8 x i8] }
%"class.clang::SourceLocation" = type { i32 }
%"struct.llvm::detail::PunnedPointer.640" = type { [8 x i8] }
%"class.llvm::PointerIntPair.635" = type { %"struct.llvm::detail::PunnedPointer.636" }
%"struct.llvm::detail::PunnedPointer.636" = type { [8 x i8] }
%"class.llvm::PointerUnion" = type { %"class.llvm::pointer_union_detail::PointerUnionMembers" }
%"class.llvm::pointer_union_detail::PointerUnionMembers" = type { %"class.llvm::pointer_union_detail::PointerUnionMembers.637" }
%"class.llvm::pointer_union_detail::PointerUnionMembers.637" = type { %"class.llvm::pointer_union_detail::PointerUnionMembers.638" }
%"class.llvm::pointer_union_detail::PointerUnionMembers.638" = type { %"class.llvm::PointerIntPair.639" }
%"class.llvm::PointerIntPair.639" = type { %"struct.llvm::detail::PunnedPointer.640" }
%"class.clang::NamedDecl" = type { %"class.clang::Decl.base", %"class.clang::DeclarationName" }
%"class.clang::Decl.base" = type <{ ptr, %"class.llvm::PointerIntPair.635", %"class.llvm::PointerUnion", %"class.clang::SourceLocation", i32, i8 }>
%"class.clang::DeclarationName" = type { i64 }

@.str.121 = private unnamed_addr constant [28 x i8] c"\0A#ifndef _REWRITER_typedef_\00", align 1
@.str.122 = private unnamed_addr constant [2 x i8] c"\0A\00", align 1
@.str.123 = private unnamed_addr constant [27 x i8] c"#define _REWRITER_typedef_\00", align 1
@.str.124 = private unnamed_addr constant [28 x i8] c"typedef struct objc_object \00", align 1
@.str.125 = private unnamed_addr constant [31 x i8] c";\0Atypedef struct {} _objc_exc_\00", align 1
@.str.126 = private unnamed_addr constant [10 x i8] c";\0A#endif\0A\00", align 1

; Function Attrs: mustprogress nounwind uwtable
define linkonce_odr hidden void @_ZNK5clang9NamedDecl15getNameAsStringB5cxx11Ev(ptr dead_on_unwind noalias writable sret(%"class.std::__cxx11::basic_string") align 8 %0, ptr noundef nonnull align 8 dereferenceable(48) %1) #0 comdat align 2 {
  %3 = alloca ptr, align 8
  %4 = alloca ptr, align 8
  store ptr %0, ptr %3, align 8
  store ptr %1, ptr %4, align 8
  %5 = load ptr, ptr %4, align 8
  %6 = getelementptr inbounds nuw %"class.clang::NamedDecl", ptr %5, i32 0, i32 1
  call void @_ZNK5clang15DeclarationName11getAsStringB5cxx11Ev(ptr dead_on_unwind writable sret(%"class.std::__cxx11::basic_string") align 8 %0, ptr noundef nonnull align 8 dereferenceable(8) %6)
  ret void
}

; Function Attrs: mustprogress nounwind uwtable
define internal void @_ZL26RewriteOneForwardClassDeclPN5clang17ObjCInterfaceDeclERNSt7__cxx1112basic_stringIcSt11char_traitsIcESaIcEEE(ptr noundef %0, ptr noundef nonnull align 8 dereferenceable(32) %1) #0 {
  %3 = alloca ptr, align 8
  %4 = alloca ptr, align 8
  %5 = alloca %"class.std::__cxx11::basic_string", align 8
  %6 = alloca %"class.std::__cxx11::basic_string", align 8
  %7 = alloca %"class.std::__cxx11::basic_string", align 8
  %8 = alloca %"class.std::__cxx11::basic_string", align 8
  store ptr %0, ptr %3, align 8
  store ptr %1, ptr %4, align 8
  %9 = load ptr, ptr %4, align 8
  %10 = call noundef nonnull align 8 dereferenceable(32) ptr @_ZNSt7__cxx1112basic_stringIcSt11char_traitsIcESaIcEEpLEPKc(ptr noundef nonnull align 8 dereferenceable(32) %9, ptr noundef @.str.121)
  %11 = load ptr, ptr %3, align 8
  call void @_ZNK5clang9NamedDecl15getNameAsStringB5cxx11Ev(ptr dead_on_unwind writable sret(%"class.std::__cxx11::basic_string") align 8 %5, ptr noundef nonnull align 8 dereferenceable(48) %11)
  %12 = load ptr, ptr %4, align 8
  %13 = call noundef nonnull align 8 dereferenceable(32) ptr @_ZNSt7__cxx1112basic_stringIcSt11char_traitsIcESaIcEEpLERKS4_(ptr noundef nonnull align 8 dereferenceable(32) %12, ptr noundef nonnull align 8 dereferenceable(32) %5)
  call void @_ZNSt7__cxx1112basic_stringIcSt11char_traitsIcESaIcEED1Ev(ptr noundef nonnull align 8 dereferenceable(32) %5) #12
  %14 = load ptr, ptr %4, align 8
  %15 = call noundef nonnull align 8 dereferenceable(32) ptr @_ZNSt7__cxx1112basic_stringIcSt11char_traitsIcESaIcEEpLEPKc(ptr noundef nonnull align 8 dereferenceable(32) %14, ptr noundef @.str.122)
  %16 = load ptr, ptr %4, align 8
  %17 = call noundef nonnull align 8 dereferenceable(32) ptr @_ZNSt7__cxx1112basic_stringIcSt11char_traitsIcESaIcEEpLEPKc(ptr noundef nonnull align 8 dereferenceable(32) %16, ptr noundef @.str.123)
  %18 = load ptr, ptr %3, align 8
  call void @_ZNK5clang9NamedDecl15getNameAsStringB5cxx11Ev(ptr dead_on_unwind writable sret(%"class.std::__cxx11::basic_string") align 8 %6, ptr noundef nonnull align 8 dereferenceable(48) %18)
  %19 = load ptr, ptr %4, align 8
  %20 = call noundef nonnull align 8 dereferenceable(32) ptr @_ZNSt7__cxx1112basic_stringIcSt11char_traitsIcESaIcEEpLERKS4_(ptr noundef nonnull align 8 dereferenceable(32) %19, ptr noundef nonnull align 8 dereferenceable(32) %6)
  call void @_ZNSt7__cxx1112basic_stringIcSt11char_traitsIcESaIcEED1Ev(ptr noundef nonnull align 8 dereferenceable(32) %6) #12
  %21 = load ptr, ptr %4, align 8
  %22 = call noundef nonnull align 8 dereferenceable(32) ptr @_ZNSt7__cxx1112basic_stringIcSt11char_traitsIcESaIcEEpLEPKc(ptr noundef nonnull align 8 dereferenceable(32) %21, ptr noundef @.str.122)
  %23 = load ptr, ptr %4, align 8
  %24 = call noundef nonnull align 8 dereferenceable(32) ptr @_ZNSt7__cxx1112basic_stringIcSt11char_traitsIcESaIcEEpLEPKc(ptr noundef nonnull align 8 dereferenceable(32) %23, ptr noundef @.str.124)
  %25 = load ptr, ptr %3, align 8
  call void @_ZNK5clang9NamedDecl15getNameAsStringB5cxx11Ev(ptr dead_on_unwind writable sret(%"class.std::__cxx11::basic_string") align 8 %7, ptr noundef nonnull align 8 dereferenceable(48) %25)
  %26 = load ptr, ptr %4, align 8
  %27 = call noundef nonnull align 8 dereferenceable(32) ptr @_ZNSt7__cxx1112basic_stringIcSt11char_traitsIcESaIcEEpLERKS4_(ptr noundef nonnull align 8 dereferenceable(32) %26, ptr noundef nonnull align 8 dereferenceable(32) %7)
  call void @_ZNSt7__cxx1112basic_stringIcSt11char_traitsIcESaIcEED1Ev(ptr noundef nonnull align 8 dereferenceable(32) %7) #12
  %28 = load ptr, ptr %4, align 8
  %29 = call noundef nonnull align 8 dereferenceable(32) ptr @_ZNSt7__cxx1112basic_stringIcSt11char_traitsIcESaIcEEpLEPKc(ptr noundef nonnull align 8 dereferenceable(32) %28, ptr noundef @.str.125)
  %30 = load ptr, ptr %3, align 8
  call void @_ZNK5clang9NamedDecl15getNameAsStringB5cxx11Ev(ptr dead_on_unwind writable sret(%"class.std::__cxx11::basic_string") align 8 %8, ptr noundef nonnull align 8 dereferenceable(48) %30)
  %31 = load ptr, ptr %4, align 8
  %32 = call noundef nonnull align 8 dereferenceable(32) ptr @_ZNSt7__cxx1112basic_stringIcSt11char_traitsIcESaIcEEpLERKS4_(ptr noundef nonnull align 8 dereferenceable(32) %31, ptr noundef nonnull align 8 dereferenceable(32) %8)
  call void @_ZNSt7__cxx1112basic_stringIcSt11char_traitsIcESaIcEED1Ev(ptr noundef nonnull align 8 dereferenceable(32) %8) #12
  %33 = load ptr, ptr %4, align 8
  %34 = call noundef nonnull align 8 dereferenceable(32) ptr @_ZNSt7__cxx1112basic_stringIcSt11char_traitsIcESaIcEEpLEPKc(ptr noundef nonnull align 8 dereferenceable(32) %33, ptr noundef @.str.126)
  ret void
}